target datalayout = "e-m:e-p270:32:32-p271:32:32-p272:64:64-i64:64-i128:128-f80:128-n8:16:32:64-S128"
target triple = "x86_64-pc-linux-gnu"

%struct.PyMemAllocatorEx = type { ptr, ptr, ptr, ptr, ptr }
%struct.anon.1 = type { i32, i32, i64 }

@FmData = internal global %struct.anon.1 zeroinitializer, align 8

; Function Attrs: nounwind uwtable
define internal i32 @fm_nomemory() #0 {
  %1 = alloca i32, align 4
  %2 = load i64, ptr getelementptr inbounds nuw (%struct.anon.1, ptr @FmData, i32 0, i32 2), align 8, !tbaa !13
  %3 = add i64 %2, 1
  store i64 %3, ptr getelementptr inbounds nuw (%struct.anon.1, ptr @FmData, i32 0, i32 2), align 8, !tbaa !13
  %4 = load i64, ptr getelementptr inbounds nuw (%struct.anon.1, ptr @FmData, i32 0, i32 2), align 8, !tbaa !13
  %5 = load i32, ptr @FmData, align 8, !tbaa !38
  %6 = sext i32 %5 to i64
  %7 = icmp sgt i64 %4, %6
  br i1 %7, label %8, label %17

8:                                                ; preds = %0
  %9 = load i32, ptr getelementptr inbounds nuw (%struct.anon.1, ptr @FmData, i32 0, i32 1), align 4, !tbaa !17
  %10 = icmp sle i32 %9, 0
  br i1 %10, label %16, label %11

11:                                               ; preds = %8
  %12 = load i64, ptr getelementptr inbounds nuw (%struct.anon.1, ptr @FmData, i32 0, i32 2), align 8, !tbaa !13
  %13 = load i32, ptr getelementptr inbounds nuw (%struct.anon.1, ptr @FmData, i32 0, i32 1), align 4, !tbaa !17
  %14 = sext i32 %13 to i64
  %15 = icmp sle i64 %12, %14
  br i1 %15, label %16, label %17

16:                                               ; preds = %11, %8
  store i32 1, ptr %1, align 4
  br label %18

17:                                               ; preds = %11, %0
  store i32 0, ptr %1, align 4
  br label %18

18:                                               ; preds = %17, %16
  %19 = load i32, ptr %1, align 4
  ret i32 %19
}

; Function Attrs: nounwind uwtable
define internal ptr @hook_fmalloc(ptr noundef %0, i64 noundef %1) #0 {
  %3 = alloca ptr, align 8
  %4 = alloca ptr, align 8
  %5 = alloca i64, align 8
  %6 = alloca ptr, align 8
  %7 = alloca i32, align 4
  store ptr %0, ptr %4, align 8, !tbaa !18
  store i64 %1, ptr %5, align 8, !tbaa !22
  call void @llvm.lifetime.start.p0(i64 8, ptr %6) #6
  %8 = load ptr, ptr %4, align 8, !tbaa !18
  store ptr %8, ptr %6, align 8, !tbaa !18
  %9 = call i32 @fm_nomemory()
  %10 = icmp ne i32 %9, 0
  br i1 %10, label %11, label %12

11:                                               ; preds = %2
  store ptr null, ptr %3, align 8
  store i32 1, ptr %7, align 4
  br label %21

12:                                               ; preds = %2
  %13 = load ptr, ptr %6, align 8, !tbaa !18
  %14 = getelementptr inbounds nuw %struct.PyMemAllocatorEx, ptr %13, i32 0, i32 1
  %15 = load ptr, ptr %14, align 8, !tbaa !33
  %16 = load ptr, ptr %6, align 8, !tbaa !18
  %17 = getelementptr inbounds nuw %struct.PyMemAllocatorEx, ptr %16, i32 0, i32 0
  %18 = load ptr, ptr %17, align 8, !tbaa !37
  %19 = load i64, ptr %5, align 8, !tbaa !22
  %20 = call ptr %15(ptr noundef %18, i64 noundef %19)
  store ptr %20, ptr %3, align 8
  store i32 1, ptr %7, align 4
  br label %21

21:                                               ; preds = %12, %11
  call void @llvm.lifetime.end.p0(i64 8, ptr %6) #6
  %22 = load ptr, ptr %3, align 8
  ret ptr %22
}