; Function Attrs: nounwind uwtable
define internal ptr @hook_fmalloc(ptr noundef readonly captures(none) %0, i64 noundef %1) #0 {
  %3 = load i64, ptr getelementptr inbounds nuw (i8, ptr @FmData, i64 8), align 8, !tbaa !11
  %4 = add i64 %3, 1
  store i64 %4, ptr getelementptr inbounds nuw (i8, ptr @FmData, i64 8), align 8, !tbaa !11
  %5 = load i32, ptr @FmData, align 8, !tbaa !30
  %6 = sext i32 %5 to i64
  %7 = icmp sgt i64 %4, %6
  br i1 %7, label %8, label %12

8:                                                ; preds = %2
  %9 = load i32, ptr getelementptr inbounds nuw (i8, ptr @FmData, i64 4), align 4, !tbaa !14
  %10 = icmp sgt i32 %9, 0
  %11 = zext nneg i32 %9 to i64
  %.not.i = icmp sgt i64 %4, %11
  %or.cond.i = select i1 %10, i1 %.not.i, i1 false
  br i1 %or.cond.i, label %12, label %fm_nomemory.exit

12:                                               ; preds = %2, %8
  %13 = getelementptr inbounds nuw i8, ptr %0, i64 8
  %14 = load ptr, ptr %13, align 8, !tbaa !15
  %15 = load ptr, ptr %0, align 8, !tbaa !19
  %16 = tail call ptr %14(ptr noundef %15, i64 noundef %1) #4
  br label %fm_nomemory.exit

fm_nomemory.exit:                                 ; preds = %8, %12
  %.0 = phi ptr [ %16, %12 ], [ null, %8 ]
  ret ptr %.0
}